; Function Attrs: mustprogress uwtable
define hidden void @_ZN6Assimp11MDLImporter13SearchPaletteEPPKh(ptr noundef nonnull align 8 dereferenceable(158) %this, ptr nocapture noundef writeonly %pszColorMap) local_unnamed_addr #0 align 2 personality ptr @__gxx_personality_v0 {
entry:
  %ref.tmp = alloca %"class.std::__cxx11::basic_string", align 8
  %ref.tmp2 = alloca %"class.std::allocator.0", align 1
  %mIOHandler = getelementptr inbounds i8, ptr %this, i64 128
  %0 = load ptr, ptr %mIOHandler, align 8
  call void @_ZNSaIcEC1Ev(ptr noundef nonnull align 1 dereferenceable(1) %ref.tmp2) #16
  %call.i7 = invoke noundef ptr @_ZNSt7__cxx1112basic_stringIcSt11char_traitsIcESaIcEE13_M_local_dataEv(ptr noundef nonnull align 8 dereferenceable(32) %ref.tmp)
          to label %call.i.noexc unwind label %lpad

call.i.noexc:                                     ; preds = %entry
  invoke void @_ZNSt7__cxx1112basic_stringIcSt11char_traitsIcESaIcEE12_Alloc_hiderC1EPcRKS3_(ptr noundef nonnull align 8 dereferenceable(8) %ref.tmp, ptr noundef %call.i7, ptr noundef nonnull align 1 dereferenceable(1) %ref.tmp2)
          to label %.noexc unwind label %lpad

.noexc:                                           ; preds = %call.i.noexc
  invoke void @_ZNSt7__cxx1112basic_stringIcSt11char_traitsIcESaIcEE12_M_constructIPKcEEvT_S8_St20forward_iterator_tag(ptr noundef nonnull align 8 dereferenceable(32) %ref.tmp, ptr noundef nonnull @.str, ptr noundef nonnull getelementptr inbounds ([3 x i8], ptr @.str, i64 0, i64 2))
          to label %invoke.cont unwind label %lpad.i

lpad.i:                                           ; preds = %.noexc
  %1 = landingpad { ptr, i32 }
          cleanup
  call void @_ZNSaIcED2Ev(ptr noundef nonnull align 1 dereferenceable(1) %ref.tmp) #16
  br label %ehcleanup

invoke.cont:                                      ; preds = %.noexc
  %configPalette = getelementptr inbounds i8, ptr %this, i64 80
  %call.i = call noundef ptr @_ZNKSt7__cxx1112basic_stringIcSt11char_traitsIcESaIcEE5c_strEv(ptr noundef nonnull align 8 dereferenceable(32) %configPalette) #16
  %call2.i = call noundef ptr @_ZNKSt7__cxx1112basic_stringIcSt11char_traitsIcESaIcEE5c_strEv(ptr noundef nonnull align 8 dereferenceable(32) %ref.tmp) #16
  %vtable.i = load ptr, ptr %0, align 8
  %vfn.i = getelementptr inbounds i8, ptr %vtable.i, i64 32
  %2 = load ptr, ptr %vfn.i, align 8
  %call3.i8 = invoke noundef ptr %2(ptr noundef nonnull align 8 dereferenceable(32) %0, ptr noundef %call.i, ptr noundef %call2.i)
          to label %invoke.cont4 unwind label %lpad3

invoke.cont4:                                     ; preds = %invoke.cont
  call void @_ZNSt7__cxx1112basic_stringIcSt11char_traitsIcESaIcEED1Ev(ptr noundef nonnull align 8 dereferenceable(32) %ref.tmp) #16
  call void @_ZNSaIcED1Ev(ptr noundef nonnull align 1 dereferenceable(1) %ref.tmp2) #16
  %tobool.not = icmp eq ptr %call3.i8, null
  br i1 %tobool.not, label %if.end14, label %if.then

if.then:                                          ; preds = %invoke.cont4
  %vtable = load ptr, ptr %call3.i8, align 8
  %vfn = getelementptr inbounds i8, ptr %vtable, i64 48
  %3 = load ptr, ptr %vfn, align 8
  %call5 = call noundef i64 %3(ptr noundef nonnull align 8 dereferenceable(8) %call3.i8)
  %cmp = icmp ugt i64 %call5, 767
  br i1 %cmp, label %if.then6, label %delete.notnull

if.then6:                                         ; preds = %if.then
  %call7 = call noalias noundef nonnull dereferenceable(768) ptr @_Znam(i64 noundef 768) #17
  %vtable8 = load ptr, ptr %call3.i8, align 8
  %vfn9 = getelementptr inbounds i8, ptr %vtable8, i64 16
  %4 = load ptr, ptr %vfn9, align 8
  %call10 = call noundef i64 %4(ptr noundef nonnull align 8 dereferenceable(8) %call3.i8, ptr noundef nonnull %call7, i64 noundef 768, i64 noundef 1)
  %call11 = call noundef ptr @_ZN6Assimp13DefaultLogger3getEv()
  call void @_ZN6Assimp6Logger4infoEPKc(ptr noundef nonnull align 8 dereferenceable(12) %call11, ptr noundef nonnull @.str.1)
  br label %delete.notnull

lpad:                                             ; preds = %call.i.noexc, %entry
  %5 = landingpad { ptr, i32 }
          cleanup
  br label %ehcleanup

lpad3:                                            ; preds = %invoke.cont
  %6 = landingpad { ptr, i32 }
          cleanup
  call void @_ZNSt7__cxx1112basic_stringIcSt11char_traitsIcESaIcEED1Ev(ptr noundef nonnull align 8 dereferenceable(32) %ref.tmp) #16
  br label %ehcleanup

ehcleanup:                                        ; preds = %lpad, %lpad.i, %lpad3
  %.pn = phi { ptr, i32 } [ %6, %lpad3 ], [ %5, %lpad ], [ %1, %lpad.i ]
  call void @_ZNSaIcED1Ev(ptr noundef nonnull align 1 dereferenceable(1) %ref.tmp2) #16
  resume { ptr, i32 } %.pn

delete.notnull:                                   ; preds = %if.then, %if.then6
  %szColorMap.0 = phi ptr [ %call7, %if.then6 ], [ @_ZL21g_aclrDefaultColorMap, %if.then ]
  %vtable12 = load ptr, ptr %call3.i8, align 8
  %vfn13 = getelementptr inbounds i8, ptr %vtable12, i64 8
  %7 = load ptr, ptr %vfn13, align 8
  call void %7(ptr noundef nonnull align 8 dereferenceable(8) %call3.i8) #16
  br label %if.end14

if.end14:                                         ; preds = %delete.notnull, %invoke.cont4
  %szColorMap.1 = phi ptr [ %szColorMap.0, %delete.notnull ], [ @_ZL21g_aclrDefaultColorMap, %invoke.cont4 ]
  store ptr %szColorMap.1, ptr %pszColorMap, align 8
  ret void
}